target datalayout = "e-m:e-p270:32:32-p271:32:32-p272:64:64-i64:64-i128:128-f80:128-n8:16:32:64-S128"
target triple = "x86_64-pc-linux-gnu"

%struct._zend_executor_globals = type { %struct._zval_struct, %struct._zval_struct, [32 x ptr], ptr, ptr, %struct._zend_array, %struct._zend_array, ptr, i32, i32, ptr, ptr, ptr, ptr, ptr, ptr, i64, ptr, ptr, i32, i32, i64, i32, i32, i32, i8, i8, %struct.zend_atomic_bool_s, %struct.zend_atomic_bool_s, ptr, i64, ptr, ptr, %struct._zend_array, %struct._zend_array, i32, i8, %struct._zval_struct, %struct._zval_struct, %struct._zend_stack, %struct._zend_stack, %struct._zend_stack, ptr, i32, i32, i64, ptr, ptr, ptr, %struct._zend_objects_store, ptr, ptr, ptr, [3 x %struct._zend_op], ptr, i8, i8, i64, i32, i32, ptr, [16 x %struct._HashTableIterator], ptr, %union._zend_function, %struct._zend_op, %struct._zend_array, i64, %struct.zend_get_gc_buffer, ptr, ptr, ptr, i64, i8, i32, ptr, ptr, i64, %struct._zend_call_stack, i64, i64, [6 x ptr] }
%struct.zend_atomic_bool_s = type { i8 }
%struct._zval_struct = type { %union._zend_value, %union.anon, %union.anon.2 }
%union._zend_value = type { i64 }
%union.anon = type { i32 }
%union.anon.2 = type { i32 }
%struct._zend_stack = type { i32, i32, i32, ptr }
%struct._zend_objects_store = type { ptr, i32, i32, i32 }
%struct._HashTableIterator = type { ptr, i32, i32 }
%union._zend_function = type { %struct._zend_op_array }
%struct._zend_op_array = type { i8, [3 x i8], i32, ptr, ptr, ptr, i32, i32, ptr, ptr, ptr, ptr, i32, i32, i32, i32, ptr, ptr, ptr, ptr, ptr, i32, i32, ptr, ptr, ptr, i32, i32, i32, i32, ptr, ptr, [6 x ptr] }
%struct._zend_op = type { ptr, %union._znode_op, %union._znode_op, %union._znode_op, i32, i32, i8, i8, i8, i8 }
%union._znode_op = type { i32 }
%struct._zend_array = type { %struct._zend_refcounted_h, %union.anon.4, i32, %union.anon.6, i32, i32, i32, i32, i64, ptr }
%struct._zend_refcounted_h = type { i32, %union.anon.3 }
%union.anon.3 = type { i32 }
%union.anon.4 = type { i32 }
%union.anon.6 = type { ptr }
%struct.zend_get_gc_buffer = type { ptr, ptr, ptr }
%struct._zend_call_stack = type { ptr, i64 }
%struct._zend_object_handlers = type { i32, ptr, ptr, ptr, ptr, ptr, ptr, ptr, ptr, ptr, ptr, ptr, ptr, ptr, ptr, ptr, ptr, ptr, ptr, ptr, ptr, ptr, ptr, ptr, ptr }
%struct._zend_execute_data = type { ptr, ptr, ptr, ptr, %struct._zval_struct, ptr, ptr, ptr, ptr }
%struct._spl_array_object = type { %struct._zval_struct, i32, i32, i8, i8, ptr, ptr, ptr, ptr, ptr, ptr, ptr, %struct._zend_object }
%struct._zend_object = type { %struct._zend_refcounted_h, i32, ptr, ptr, ptr, [1 x %struct._zval_struct] }
%struct.anon.0 = type { i8, i8, %union.anon.1 }
%union.anon.1 = type { i16 }
%struct._zend_string = type { %struct._zend_refcounted_h, i64, i64, [1 x i8] }

@executor_globals = external global %struct._zend_executor_globals, align 8
@spl_ce_ArrayIterator = global ptr null, align 8
@spl_ce_ArrayObject = global ptr null, align 8
@spl_handler_ArrayIterator = internal global %struct._zend_object_handlers zeroinitializer, align 8
@.str.36 = private unnamed_addr constant [8 x i8] c"storage\00", align 1

; Function Attrs: nounwind uwtable
define internal ptr @spl_array_from_obj(ptr noundef %0) #0 {
  %2 = alloca ptr, align 8
  store ptr %0, ptr %2, align 8
  %3 = load ptr, ptr %2, align 8
  %4 = getelementptr inbounds i8, ptr %3, i64 -88
  ret ptr %4
}

; Function Attrs: nounwind uwtable
define internal ptr @spl_array_get_debug_info(ptr noundef %0) #0 {
  %2 = alloca i1, align 1
  %3 = alloca ptr, align 8
  %4 = alloca i64, align 8
  %5 = alloca ptr, align 8
  %6 = alloca ptr, align 8
  %7 = alloca ptr, align 8
  %8 = alloca ptr, align 8
  %9 = alloca ptr, align 8
  %10 = alloca ptr, align 8
  %11 = alloca i64, align 8
  %12 = alloca ptr, align 8
  %13 = alloca ptr, align 8
  %14 = alloca i32, align 4
  %15 = alloca ptr, align 8
  %16 = alloca i8, align 1
  %17 = alloca ptr, align 8
  %18 = alloca ptr, align 8
  %19 = alloca ptr, align 8
  %20 = alloca ptr, align 8
  %21 = alloca ptr, align 8
  %22 = alloca ptr, align 8
  %23 = alloca ptr, align 8
  %24 = alloca ptr, align 8
  %25 = alloca ptr, align 8
  store ptr %0, ptr %20, align 8
  %26 = load ptr, ptr %20, align 8
  %27 = call ptr @spl_array_from_obj(ptr noundef %26)
  store ptr %27, ptr %24, align 8
  %28 = load ptr, ptr %24, align 8
  %29 = getelementptr inbounds %struct._spl_array_object, ptr %28, i32 0, i32 12
  %30 = getelementptr inbounds %struct._zend_object, ptr %29, i32 0, i32 4
  %31 = load ptr, ptr %30, align 8
  %32 = icmp ne ptr %31, null
  br i1 %32, label %36, label %33

33:                                               ; preds = %1
  %34 = load ptr, ptr %24, align 8
  %35 = getelementptr inbounds %struct._spl_array_object, ptr %34, i32 0, i32 12
  call void @rebuild_object_properties(ptr noundef %35)
  br label %36

36:                                               ; preds = %33, %1
  %37 = load ptr, ptr %24, align 8
  %38 = getelementptr inbounds %struct._spl_array_object, ptr %37, i32 0, i32 2
  %39 = load i32, ptr %38, align 4
  %40 = and i32 %39, 16777216
  %41 = icmp ne i32 %40, 0
  br i1 %41, label %42, label %48

42:                                               ; preds = %36
  %43 = load ptr, ptr %24, align 8
  %44 = getelementptr inbounds %struct._spl_array_object, ptr %43, i32 0, i32 12
  %45 = getelementptr inbounds %struct._zend_object, ptr %44, i32 0, i32 4
  %46 = load ptr, ptr %45, align 8
  %47 = call ptr @zend_array_dup(ptr noundef %46)
  store ptr %47, ptr %19, align 8
  br label %184

48:                                               ; preds = %36
  %49 = load ptr, ptr %24, align 8
  %50 = getelementptr inbounds %struct._spl_array_object, ptr %49, i32 0, i32 12
  %51 = getelementptr inbounds %struct._zend_object, ptr %50, i32 0, i32 4
  %52 = load ptr, ptr %51, align 8
  store ptr %52, ptr %12, align 8
  %53 = load ptr, ptr %12, align 8
  %54 = getelementptr inbounds %struct._zend_array, ptr %53, i32 0, i32 5
  %55 = load i32, ptr %54, align 4
  %56 = add i32 %55, 1
  %57 = call ptr @_zend_new_array(i32 noundef %56)
  store ptr %57, ptr %25, align 8
  %58 = load ptr, ptr %25, align 8
  %59 = load ptr, ptr %24, align 8
  %60 = getelementptr inbounds %struct._spl_array_object, ptr %59, i32 0, i32 12
  %61 = getelementptr inbounds %struct._zend_object, ptr %60, i32 0, i32 4
  %62 = load ptr, ptr %61, align 8
  call void @zend_hash_copy(ptr noundef %58, ptr noundef %62, ptr noundef @zval_add_ref)
  %63 = load ptr, ptr %24, align 8
  %64 = getelementptr inbounds %struct._spl_array_object, ptr %63, i32 0, i32 0
  store ptr %64, ptr %21, align 8
  br label %65

65:                                               ; preds = %48
  %66 = load ptr, ptr %21, align 8
  %67 = getelementptr inbounds %struct._zval_struct, ptr %66, i32 0, i32 1
  %68 = getelementptr inbounds %struct.anon.0, ptr %67, i32 0, i32 1
  %69 = load i8, ptr %68, align 1
  %70 = zext i8 %69 to i32
  %71 = icmp ne i32 %70, 0
  br i1 %71, label %72, label %85

72:                                               ; preds = %65
  %73 = load ptr, ptr %21, align 8
  store ptr %73, ptr %18, align 8
  %74 = load ptr, ptr %18, align 8
  %75 = getelementptr inbounds %struct._zval_struct, ptr %74, i32 0, i32 1
  %76 = getelementptr inbounds %struct.anon.0, ptr %75, i32 0, i32 1
  %77 = load i8, ptr %76, align 1
  %78 = zext i8 %77 to i32
  %79 = icmp ne i32 %78, 0
  call void @llvm.assume(i1 %79)
  %80 = load ptr, ptr %18, align 8
  %81 = load ptr, ptr %80, align 8
  store ptr %81, ptr %17, align 8
  %82 = load ptr, ptr %17, align 8
  %83 = load i32, ptr %82, align 4
  %84 = add i32 %83, 1
  store i32 %84, ptr %82, align 4
  br label %85

85:                                               ; preds = %72, %65
  br label %86

86:                                               ; preds = %85
  %87 = load ptr, ptr %20, align 8
  %88 = getelementptr inbounds %struct._zend_object, ptr %87, i32 0, i32 3
  %89 = load ptr, ptr %88, align 8
  %90 = icmp eq ptr %89, @spl_handler_ArrayIterator
  br i1 %90, label %91, label %93

91:                                               ; preds = %86
  %92 = load ptr, ptr @spl_ce_ArrayIterator, align 8
  br label %95

93:                                               ; preds = %86
  %94 = load ptr, ptr @spl_ce_ArrayObject, align 8
  br label %95

95:                                               ; preds = %93, %91
  %96 = phi ptr [ %92, %91 ], [ %94, %93 ]
  store ptr %96, ptr %23, align 8
  %97 = load ptr, ptr %23, align 8
  %98 = call ptr @spl_gen_private_prop_name(ptr noundef %97, ptr noundef @.str.36, i64 noundef 7)
  store ptr %98, ptr %22, align 8
  %99 = load ptr, ptr %25, align 8
  %100 = load ptr, ptr %22, align 8
  %101 = load ptr, ptr %21, align 8
  store ptr %99, ptr %8, align 8
  store ptr %100, ptr %9, align 8
  store ptr %101, ptr %10, align 8
  %102 = load ptr, ptr %9, align 8
  %103 = getelementptr inbounds %struct._zend_string, ptr %102, i32 0, i32 3
  %104 = load ptr, ptr %9, align 8
  %105 = getelementptr inbounds %struct._zend_string, ptr %104, i32 0, i32 2
  %106 = load i64, ptr %105, align 8
  store ptr %103, ptr %3, align 8
  store i64 %106, ptr %4, align 8
  store ptr %11, ptr %5, align 8
  %107 = load ptr, ptr %3, align 8
  store ptr %107, ptr %6, align 8
  %108 = load ptr, ptr %6, align 8
  %109 = load i8, ptr %108, align 1
  %110 = sext i8 %109 to i32
  %111 = icmp sgt i32 %110, 57
  br i1 %111, label %112, label %113

112:                                              ; preds = %95
  store i1 false, ptr %2, align 1
  br label %143

113:                                              ; preds = %95
  %114 = load ptr, ptr %6, align 8
  %115 = load i8, ptr %114, align 1
  %116 = sext i8 %115 to i32
  %117 = icmp slt i32 %116, 48
  br i1 %117, label %118, label %138

118:                                              ; preds = %113
  %119 = load ptr, ptr %6, align 8
  %120 = load i8, ptr %119, align 1
  %121 = sext i8 %120 to i32
  %122 = icmp ne i32 %121, 45
  br i1 %122, label %123, label %124

123:                                              ; preds = %118
  store i1 false, ptr %2, align 1
  br label %143

124:                                              ; preds = %118
  %125 = load ptr, ptr %6, align 8
  %126 = getelementptr inbounds i8, ptr %125, i32 1
  store ptr %126, ptr %6, align 8
  %127 = load ptr, ptr %6, align 8
  %128 = load i8, ptr %127, align 1
  %129 = sext i8 %128 to i32
  %130 = icmp sgt i32 %129, 57
  br i1 %130, label %136, label %131

131:                                              ; preds = %124
  %132 = load ptr, ptr %6, align 8
  %133 = load i8, ptr %132, align 1
  %134 = sext i8 %133 to i32
  %135 = icmp slt i32 %134, 48
  br i1 %135, label %136, label %137

136:                                              ; preds = %131, %124
  store i1 false, ptr %2, align 1
  br label %143

137:                                              ; preds = %131
  br label %138

138:                                              ; preds = %137, %113
  %139 = load ptr, ptr %3, align 8
  %140 = load i64, ptr %4, align 8
  %141 = load ptr, ptr %5, align 8
  %142 = call zeroext i1 @_zend_handle_numeric_str_ex(ptr noundef %139, i64 noundef %140, ptr noundef %141) #12
  store i1 %142, ptr %2, align 1
  br label %143

143:                                              ; preds = %138, %136, %123, %112
  %144 = load i1, ptr %2, align 1
  br i1 %144, label %145, label %150

145:                                              ; preds = %143
  %146 = load ptr, ptr %8, align 8
  %147 = load i64, ptr %11, align 8
  %148 = load ptr, ptr %10, align 8
  %149 = call ptr @zend_hash_index_update(ptr noundef %146, i64 noundef %147, ptr noundef %148) #12
  store ptr %149, ptr %7, align 8
  br label %155

150:                                              ; preds = %143
  %151 = load ptr, ptr %8, align 8
  %152 = load ptr, ptr %9, align 8
  %153 = load ptr, ptr %10, align 8
  %154 = call ptr @zend_hash_update(ptr noundef %151, ptr noundef %152, ptr noundef %153) #12
  store ptr %154, ptr %7, align 8
  br label %155

155:                                              ; preds = %150, %145
  %156 = load ptr, ptr %22, align 8
  store ptr %156, ptr %15, align 8
  store i8 0, ptr %16, align 1
  %157 = load ptr, ptr %15, align 8
  %158 = getelementptr inbounds %struct._zend_refcounted_h, ptr %157, i32 0, i32 1
  %159 = load i32, ptr %158, align 4
  store i32 %159, ptr %14, align 4
  %160 = load i32, ptr %14, align 4
  %161 = and i32 %160, 1008
  %162 = and i32 %161, 64
  %163 = icmp ne i32 %162, 0
  br i1 %163, label %182, label %164

164:                                              ; preds = %155
  %165 = load ptr, ptr %15, align 8
  store ptr %165, ptr %13, align 8
  %166 = load ptr, ptr %13, align 8
  %167 = load i32, ptr %166, align 4
  %168 = icmp ugt i32 %167, 0
  call void @llvm.assume(i1 %168)
  %169 = load ptr, ptr %13, align 8
  %170 = load i32, ptr %169, align 4
  %171 = add i32 %170, -1
  store i32 %171, ptr %169, align 4
  %172 = icmp eq i32 %171, 0
  br i1 %172, label %173, label %181

173:                                              ; preds = %164
  %174 = load i8, ptr %16, align 1
  %175 = trunc i8 %174 to i1
  br i1 %175, label %176, label %178

176:                                              ; preds = %173
  %177 = load ptr, ptr %15, align 8
  call void @free(ptr noundef %177) #12
  br label %180

178:                                              ; preds = %173
  %179 = load ptr, ptr %15, align 8
  call void @_efree(ptr noundef %179) #12
  br label %180

180:                                              ; preds = %178, %176
  br label %181

181:                                              ; preds = %180, %164
  br label %182

182:                                              ; preds = %181, %155
  %183 = load ptr, ptr %25, align 8
  store ptr %183, ptr %19, align 8
  br label %184

184:                                              ; preds = %182, %42
  %185 = load ptr, ptr %19, align 8
  ret ptr %185
}

; Function Attrs: nounwind uwtable
define hidden void @zim_ArrayObject___debugInfo(ptr noundef %0, ptr noundef %1) #0 {
  %3 = alloca ptr, align 8
  %4 = alloca ptr, align 8
  %5 = alloca ptr, align 8
  %6 = alloca ptr, align 8
  store ptr %0, ptr %3, align 8
  store ptr %1, ptr %4, align 8
  %7 = load ptr, ptr %3, align 8
  %8 = getelementptr inbounds %struct._zend_execute_data, ptr %7, i32 0, i32 4
  %9 = getelementptr inbounds %struct._zval_struct, ptr %8, i32 0, i32 2
  %10 = load i32, ptr %9, align 4
  %11 = icmp eq i32 %10, 0
  %12 = xor i1 %11, true
  %13 = xor i1 %12, true
  %14 = zext i1 %13 to i32
  %15 = sext i32 %14 to i64
  %16 = icmp ne i64 %15, 0
  br i1 %16, label %17, label %18

17:                                               ; preds = %2
  br label %19

18:                                               ; preds = %2
  call void @zend_wrong_parameters_none_error()
  br label %19

19:                                               ; preds = %18, %17
  %20 = phi i32 [ 0, %17 ], [ -1, %18 ]
  %21 = icmp eq i32 %20, -1
  br i1 %21, label %22, label %27

22:                                               ; preds = %19
  br label %23

23:                                               ; preds = %22
  %24 = load ptr, ptr getelementptr inbounds (%struct._zend_executor_globals, ptr @executor_globals, i32 0, i32 50), align 8
  %25 = icmp ne ptr %24, null
  call void @llvm.assume(i1 %25)
  br label %42

26:                                               ; No predecessors!
  br label %27

27:                                               ; preds = %26, %19
  br label %28

28:                                               ; preds = %27
  br label %29

29:                                               ; preds = %28
  %30 = load ptr, ptr %3, align 8
  %31 = getelementptr inbounds %struct._zend_execute_data, ptr %30, i32 0, i32 4
  %32 = getelementptr inbounds %struct._zval_struct, ptr %31, i32 0, i32 0
  %33 = load ptr, ptr %32, align 8
  %34 = call ptr @spl_array_get_debug_info(ptr noundef %33)
  store ptr %34, ptr %5, align 8
  %35 = load ptr, ptr %4, align 8
  store ptr %35, ptr %6, align 8
  %36 = load ptr, ptr %5, align 8
  %37 = load ptr, ptr %6, align 8
  %38 = getelementptr inbounds %struct._zval_struct, ptr %37, i32 0, i32 0
  store ptr %36, ptr %38, align 8
  %39 = load ptr, ptr %6, align 8
  %40 = getelementptr inbounds %struct._zval_struct, ptr %39, i32 0, i32 1
  store i32 775, ptr %40, align 8
  br label %41

41:                                               ; preds = %29
  br label %42

42:                                               ; preds = %41, %23
  ret void
}