; Function Attrs: nounwind uwtable
define hidden void @zim_ArrayObject___debugInfo(ptr nocapture noundef readonly %0, ptr nocapture noundef writeonly %1) #0 {
  %3 = alloca i64, align 8
  %4 = getelementptr inbounds i8, ptr %0, i64 44
  %5 = load i32, ptr %4, align 4
  %.not = icmp eq i32 %5, 0
  br i1 %.not, label %.critedge, label %6

6:                                                ; preds = %2
  tail call void @zend_wrong_parameters_none_error() #11
  %7 = load ptr, ptr getelementptr inbounds (%struct._zend_executor_globals, ptr @executor_globals, i64 0, i32 50), align 8
  %8 = icmp ne ptr %7, null
  tail call void @llvm.assume(i1 %8)
  br label %71

.critedge:                                        ; preds = %2
  %9 = getelementptr inbounds i8, ptr %0, i64 32
  %10 = load ptr, ptr %9, align 8
  call void @llvm.lifetime.start.p0(i64 8, ptr nonnull %3)
  %11 = getelementptr inbounds i8, ptr %10, i64 -88
  %12 = getelementptr inbounds i8, ptr %10, i64 32
  %13 = load ptr, ptr %12, align 8
  %.not.i = icmp eq ptr %13, null
  br i1 %.not.i, label %14, label %15

14:                                               ; preds = %.critedge
  tail call void @rebuild_object_properties(ptr noundef nonnull %10) #11
  %.pre = load ptr, ptr %12, align 8
  br label %15

15:                                               ; preds = %14, %.critedge
  %16 = phi ptr [ %.pre, %14 ], [ %13, %.critedge ]
  %17 = getelementptr inbounds i8, ptr %10, i64 -68
  %18 = load i32, ptr %17, align 4
  %19 = and i32 %18, 16777216
  %.not51.i = icmp eq i32 %19, 0
  br i1 %.not51.i, label %22, label %20

20:                                               ; preds = %15
  %21 = tail call ptr @zend_array_dup(ptr noundef %16) #11
  br label %spl_array_get_debug_info.exit

22:                                               ; preds = %15
  %23 = getelementptr inbounds i8, ptr %16, i64 28
  %24 = load i32, ptr %23, align 4
  %25 = add i32 %24, 1
  %26 = tail call ptr @_zend_new_array(i32 noundef %25) #11
  %27 = load ptr, ptr %12, align 8
  tail call void @zend_hash_copy(ptr noundef %26, ptr noundef %27, ptr noundef nonnull @zval_add_ref) #11
  %28 = getelementptr inbounds i8, ptr %10, i64 -79
  %29 = load i8, ptr %28, align 1
  %.not52.i = icmp eq i8 %29, 0
  br i1 %.not52.i, label %34, label %30

30:                                               ; preds = %22
  %31 = load ptr, ptr %11, align 8
  %32 = load i32, ptr %31, align 4
  %33 = add i32 %32, 1
  store i32 %33, ptr %31, align 4
  br label %34

34:                                               ; preds = %30, %22
  %35 = getelementptr inbounds i8, ptr %10, i64 24
  %36 = load ptr, ptr %35, align 8
  %37 = icmp eq ptr %36, @spl_handler_ArrayIterator
  %38 = load ptr, ptr @spl_ce_ArrayIterator, align 8
  %39 = load ptr, ptr @spl_ce_ArrayObject, align 8
  %40 = select i1 %37, ptr %38, ptr %39
  %41 = tail call ptr @spl_gen_private_prop_name(ptr noundef %40, ptr noundef nonnull @.str.36, i64 noundef 7) #11
  %42 = getelementptr inbounds i8, ptr %41, i64 24
  %43 = getelementptr inbounds i8, ptr %41, i64 16
  %44 = load i64, ptr %43, align 8
  %45 = load i8, ptr %42, align 1
  %46 = icmp sgt i8 %45, 57
  br i1 %46, label %.critedge.i, label %47

47:                                               ; preds = %34
  %48 = icmp slt i8 %45, 48
  br i1 %48, label %49, label %54

49:                                               ; preds = %47
  %.not53.i = icmp eq i8 %45, 45
  br i1 %.not53.i, label %50, label %.critedge.i

50:                                               ; preds = %49
  %51 = getelementptr inbounds i8, ptr %41, i64 25
  %52 = load i8, ptr %51, align 1
  %53 = add i8 %52, -58
  %or.cond.i = icmp ult i8 %53, -10
  br i1 %or.cond.i, label %.critedge.i, label %54

54:                                               ; preds = %50, %47
  %55 = call zeroext i1 @_zend_handle_numeric_str_ex(ptr noundef nonnull %42, i64 noundef %44, ptr noundef nonnull %3) #11
  br i1 %55, label %56, label %.critedge.i

56:                                               ; preds = %54
  %57 = load i64, ptr %3, align 8
  %58 = call ptr @zend_hash_index_update(ptr noundef %26, i64 noundef %57, ptr noundef nonnull %11) #11
  br label %60

.critedge.i:                                      ; preds = %54, %50, %49, %34
  %59 = call ptr @zend_hash_update(ptr noundef %26, ptr noundef nonnull %41, ptr noundef nonnull %11) #11
  br label %60

60:                                               ; preds = %.critedge.i, %56
  %61 = getelementptr inbounds i8, ptr %41, i64 4
  %62 = load i32, ptr %61, align 4
  %63 = and i32 %62, 64
  %.not54.i = icmp eq i32 %63, 0
  br i1 %.not54.i, label %64, label %spl_array_get_debug_info.exit

64:                                               ; preds = %60
  %65 = load i32, ptr %41, align 4
  %66 = icmp ne i32 %65, 0
  call void @llvm.assume(i1 %66)
  %67 = add i32 %65, -1
  store i32 %67, ptr %41, align 4
  %68 = icmp eq i32 %67, 0
  br i1 %68, label %69, label %spl_array_get_debug_info.exit

69:                                               ; preds = %64
  call void @_efree(ptr noundef nonnull %41) #11
  br label %spl_array_get_debug_info.exit

spl_array_get_debug_info.exit:                    ; preds = %20, %60, %64, %69
  %.048.i = phi ptr [ %21, %20 ], [ %26, %64 ], [ %26, %69 ], [ %26, %60 ]
  call void @llvm.lifetime.end.p0(i64 8, ptr nonnull %3)
  store ptr %.048.i, ptr %1, align 8
  %70 = getelementptr inbounds i8, ptr %1, i64 8
  store i32 775, ptr %70, align 8
  br label %71

71:                                               ; preds = %spl_array_get_debug_info.exit, %6
  ret void
}